target datalayout = "e-m:e-p270:32:32-p271:32:32-p272:64:64-i64:64-i128:128-f80:128-n8:16:32:64-S128"
target triple = "x86_64-pc-linux-gnu"

%union.EX_STYPE = type { ptr }
%struct.Gpr_t = type { ptr, ptr, ptr, ptr, ptr, ptr, ptr, ptr, ptr, ptr, ptr, i32, ptr, ptr, ptr, i32, i32, ptr, i32, ptr, i64, [1 x %struct.__jmp_buf_tag] }
%struct.__jmp_buf_tag = type { [8 x i64], i32, %struct.__sigset_t }
%struct.__sigset_t = type { [16 x i64] }
%struct.comp_block = type { ptr, i8, i64, i64, ptr, ptr }
%struct.case_stmt = type { ptr, ptr }

; Function Attrs: nounwind uwtable
define internal ptr @evalEdge(ptr noundef %0, ptr noundef %1, ptr noundef %2, ptr noundef %3) #0 {
  %5 = alloca ptr, align 8
  %6 = alloca ptr, align 8
  %7 = alloca ptr, align 8
  %8 = alloca ptr, align 8
  %9 = alloca ptr, align 8
  %10 = alloca i8, align 1
  %11 = alloca i64, align 8
  %12 = alloca %union.EX_STYPE, align 8
  %13 = alloca %union.EX_STYPE, align 8
  store ptr %0, ptr %5, align 8, !tbaa !10
  store ptr %1, ptr %6, align 8, !tbaa !96
  store ptr %2, ptr %7, align 8, !tbaa !10
  store ptr %3, ptr %8, align 8, !tbaa !130
  call void @llvm.lifetime.start.p0(i64 8, ptr %9) #14
  call void @llvm.lifetime.start.p0(i64 1, ptr %10) #14
  %14 = load ptr, ptr %8, align 8, !tbaa !130
  %15 = load ptr, ptr %5, align 8, !tbaa !10
  %16 = getelementptr inbounds nuw %struct.Gpr_t, ptr %15, i32 0, i32 4
  store ptr %14, ptr %16, align 8, !tbaa !72
  call void @llvm.lifetime.start.p0(i64 8, ptr %11) #14
  store i64 0, ptr %11, align 8, !tbaa !69
  br label %17

17:                                               ; preds = %70, %4
  %18 = load i64, ptr %11, align 8, !tbaa !69
  %19 = load ptr, ptr %7, align 8, !tbaa !10
  %20 = getelementptr inbounds nuw %struct.comp_block, ptr %19, i32 0, i32 3
  %21 = load i64, ptr %20, align 8, !tbaa !129
  %22 = icmp ult i64 %18, %21
  br i1 %22, label %24, label %23

23:                                               ; preds = %17
  call void @llvm.lifetime.end.p0(i64 8, ptr %11) #14
  br label %73

24:                                               ; preds = %17
  %25 = load ptr, ptr %7, align 8, !tbaa !10
  %26 = getelementptr inbounds nuw %struct.comp_block, ptr %25, i32 0, i32 5
  %27 = load ptr, ptr %26, align 8, !tbaa !168
  %28 = load i64, ptr %11, align 8, !tbaa !69
  %29 = getelementptr inbounds nuw %struct.case_stmt, ptr %27, i64 %28
  store ptr %29, ptr %9, align 8, !tbaa !10
  %30 = load ptr, ptr %9, align 8, !tbaa !10
  %31 = getelementptr inbounds nuw %struct.case_stmt, ptr %30, i32 0, i32 0
  %32 = load ptr, ptr %31, align 8, !tbaa !164
  %33 = icmp ne ptr %32, null
  br i1 %33, label %34, label %45

34:                                               ; preds = %24
  %35 = load ptr, ptr %6, align 8, !tbaa !96
  %36 = load ptr, ptr %9, align 8, !tbaa !10
  %37 = getelementptr inbounds nuw %struct.case_stmt, ptr %36, i32 0, i32 0
  %38 = load ptr, ptr %37, align 8, !tbaa !164
  %39 = load ptr, ptr %5, align 8, !tbaa !10
  %40 = call ptr @exeval(ptr noundef %35, ptr noundef %38, ptr noundef %39)
  %41 = getelementptr inbounds nuw %union.EX_STYPE, ptr %12, i32 0, i32 0
  store ptr %40, ptr %41, align 8
  %42 = load i64, ptr %12, align 8, !tbaa !25
  %43 = icmp ne i64 %42, 0
  %44 = zext i1 %43 to i8
  store i8 %44, ptr %10, align 1, !tbaa !54
  br label %46

45:                                               ; preds = %24
  store i8 1, ptr %10, align 1, !tbaa !54
  br label %46

46:                                               ; preds = %45, %34
  %47 = load i8, ptr %10, align 1, !tbaa !54, !range !61, !noundef !62
  %48 = trunc i8 %47 to i1
  br i1 %48, label %49, label %69

49:                                               ; preds = %46
  %50 = load ptr, ptr %9, align 8, !tbaa !10
  %51 = getelementptr inbounds nuw %struct.case_stmt, ptr %50, i32 0, i32 1
  %52 = load ptr, ptr %51, align 8, !tbaa !166
  %53 = icmp ne ptr %52, null
  br i1 %53, label %54, label %62

54:                                               ; preds = %49
  %55 = load ptr, ptr %6, align 8, !tbaa !96
  %56 = load ptr, ptr %9, align 8, !tbaa !10
  %57 = getelementptr inbounds nuw %struct.case_stmt, ptr %56, i32 0, i32 1
  %58 = load ptr, ptr %57, align 8, !tbaa !166
  %59 = load ptr, ptr %5, align 8, !tbaa !10
  %60 = call ptr @exeval(ptr noundef %55, ptr noundef %58, ptr noundef %59)
  %61 = getelementptr inbounds nuw %union.EX_STYPE, ptr %13, i32 0, i32 0
  store ptr %60, ptr %61, align 8
  br label %68

62:                                               ; preds = %49
  %63 = load ptr, ptr %5, align 8, !tbaa !10
  %64 = getelementptr inbounds nuw %struct.Gpr_t, ptr %63, i32 0, i32 2
  %65 = load ptr, ptr %64, align 8, !tbaa !81
  %66 = load ptr, ptr %8, align 8, !tbaa !130
  %67 = call ptr @agsubedge(ptr noundef %65, ptr noundef %66, i32 noundef 1)
  br label %68

68:                                               ; preds = %62, %54
  br label %69

69:                                               ; preds = %68, %46
  br label %70

70:                                               ; preds = %69
  %71 = load i64, ptr %11, align 8, !tbaa !69
  %72 = add i64 %71, 1
  store i64 %72, ptr %11, align 8, !tbaa !69
  br label %17, !llvm.loop !169

73:                                               ; preds = %23
  %74 = load ptr, ptr %5, align 8, !tbaa !10
  %75 = getelementptr inbounds nuw %struct.Gpr_t, ptr %74, i32 0, i32 4
  %76 = load ptr, ptr %75, align 8, !tbaa !72
  call void @llvm.lifetime.end.p0(i64 1, ptr %10) #14
  call void @llvm.lifetime.end.p0(i64 8, ptr %9) #14
  ret ptr %76
}

; Function Attrs: nounwind uwtable
define internal void @travEdges(ptr noundef %0, ptr noundef %1, ptr noundef %2) #0 {
  %4 = alloca ptr, align 8
  %5 = alloca ptr, align 8
  %6 = alloca ptr, align 8
  %7 = alloca ptr, align 8
  %8 = alloca ptr, align 8
  %9 = alloca ptr, align 8
  %10 = alloca ptr, align 8
  %11 = alloca ptr, align 8
  store ptr %0, ptr %4, align 8, !tbaa !10
  store ptr %1, ptr %5, align 8, !tbaa !96
  store ptr %2, ptr %6, align 8, !tbaa !10
  call void @llvm.lifetime.start.p0(i64 8, ptr %7) #14
  call void @llvm.lifetime.start.p0(i64 8, ptr %8) #14
  call void @llvm.lifetime.start.p0(i64 8, ptr %9) #14
  call void @llvm.lifetime.start.p0(i64 8, ptr %10) #14
  call void @llvm.lifetime.start.p0(i64 8, ptr %11) #14
  %12 = load ptr, ptr %4, align 8, !tbaa !10
  %13 = getelementptr inbounds nuw %struct.Gpr_t, ptr %12, i32 0, i32 0
  %14 = load ptr, ptr %13, align 8, !tbaa !65
  store ptr %14, ptr %11, align 8, !tbaa !64
  %15 = load ptr, ptr %11, align 8, !tbaa !64
  %16 = call ptr @agfstnode(ptr noundef %15)
  store ptr %16, ptr %7, align 8, !tbaa !128
  br label %17

17:                                               ; preds = %42, %3
  %18 = load ptr, ptr %7, align 8, !tbaa !128
  %19 = icmp ne ptr %18, null
  br i1 %19, label %20, label %44

20:                                               ; preds = %17
  %21 = load ptr, ptr %11, align 8, !tbaa !64
  %22 = load ptr, ptr %7, align 8, !tbaa !128
  %23 = call ptr @agnxtnode(ptr noundef %21, ptr noundef %22)
  store ptr %23, ptr %8, align 8, !tbaa !128
  %24 = load ptr, ptr %11, align 8, !tbaa !64
  %25 = load ptr, ptr %7, align 8, !tbaa !128
  %26 = call ptr @agfstout(ptr noundef %24, ptr noundef %25)
  store ptr %26, ptr %9, align 8, !tbaa !130
  br label %27

27:                                               ; preds = %39, %20
  %28 = load ptr, ptr %9, align 8, !tbaa !130
  %29 = icmp ne ptr %28, null
  br i1 %29, label %30, label %41

30:                                               ; preds = %27
  %31 = load ptr, ptr %11, align 8, !tbaa !64
  %32 = load ptr, ptr %9, align 8, !tbaa !130
  %33 = call ptr @agnxtout(ptr noundef %31, ptr noundef %32)
  store ptr %33, ptr %10, align 8, !tbaa !130
  %34 = load ptr, ptr %4, align 8, !tbaa !10
  %35 = load ptr, ptr %5, align 8, !tbaa !96
  %36 = load ptr, ptr %6, align 8, !tbaa !10
  %37 = load ptr, ptr %9, align 8, !tbaa !130
  %38 = call ptr @evalEdge(ptr noundef %34, ptr noundef %35, ptr noundef %36, ptr noundef %37)
  br label %39

39:                                               ; preds = %30
  %40 = load ptr, ptr %10, align 8, !tbaa !130
  store ptr %40, ptr %9, align 8, !tbaa !130
  br label %27, !llvm.loop !160

41:                                               ; preds = %27
  br label %42

42:                                               ; preds = %41
  %43 = load ptr, ptr %8, align 8, !tbaa !128
  store ptr %43, ptr %7, align 8, !tbaa !128
  br label %17, !llvm.loop !161

44:                                               ; preds = %17
  call void @llvm.lifetime.end.p0(i64 8, ptr %11) #14
  call void @llvm.lifetime.end.p0(i64 8, ptr %10) #14
  call void @llvm.lifetime.end.p0(i64 8, ptr %9) #14
  call void @llvm.lifetime.end.p0(i64 8, ptr %8) #14
  call void @llvm.lifetime.end.p0(i64 8, ptr %7) #14
  ret void
}