; Function Attrs: nounwind uwtable
define internal fastcc void @travEdges(ptr noundef %0, ptr noundef %1, ptr noundef readonly captures(none) %2) unnamed_addr #0 {
  %4 = load ptr, ptr %0, align 8, !tbaa !74
  %5 = tail call ptr @agfstnode(ptr noundef %4) #24
  %.not20 = icmp eq ptr %5, null
  br i1 %.not20, label %._crit_edge, label %.lr.ph22

.lr.ph22:                                         ; preds = %3
  %6 = getelementptr inbounds nuw i8, ptr %0, i64 32
  %7 = getelementptr inbounds nuw i8, ptr %2, i64 24
  %8 = getelementptr inbounds nuw i8, ptr %2, i64 40
  %9 = getelementptr inbounds nuw i8, ptr %0, i64 16
  br label %10

.loopexit:                                        ; preds = %evalEdge.exit, %10
  %.not = icmp eq ptr %11, null
  br i1 %.not, label %._crit_edge, label %10, !llvm.loop !142

10:                                               ; preds = %.lr.ph22, %.loopexit
  %.021 = phi ptr [ %5, %.lr.ph22 ], [ %11, %.loopexit ]
  %11 = tail call ptr @agnxtnode(ptr noundef %4, ptr noundef nonnull %.021) #24
  %12 = tail call ptr @agfstout(ptr noundef %4, ptr noundef nonnull %.021) #24
  %.not1718 = icmp eq ptr %12, null
  br i1 %.not1718, label %.loopexit, label %.lr.ph

.lr.ph:                                           ; preds = %10, %evalEdge.exit
  %.01619 = phi ptr [ %13, %evalEdge.exit ], [ %12, %10 ]
  %13 = tail call ptr @agnxtout(ptr noundef %4, ptr noundef nonnull %.01619) #24
  store ptr %.01619, ptr %6, align 8, !tbaa !79
  %14 = load i64, ptr %7, align 8, !tbaa !98
  %.not25.i = icmp eq i64 %14, 0
  br i1 %.not25.i, label %evalEdge.exit, label %.lr.ph.i

.lr.ph.i:                                         ; preds = %.lr.ph, %27
  %.01924.i = phi i64 [ %28, %27 ], [ 0, %.lr.ph ]
  %15 = load ptr, ptr %8, align 8, !tbaa !99
  %16 = getelementptr inbounds nuw %struct.case_stmt, ptr %15, i64 %.01924.i
  %17 = load ptr, ptr %16, align 8, !tbaa !94
  %.not.i = icmp eq ptr %17, null
  br i1 %.not.i, label %.critedge.i, label %18

18:                                               ; preds = %.lr.ph.i
  %19 = tail call ptr @exeval(ptr noundef %1, ptr noundef nonnull %17, ptr noundef nonnull %0) #24
  %.not23.i = icmp eq ptr %19, null
  br i1 %.not23.i, label %27, label %.critedge.i

.critedge.i:                                      ; preds = %18, %.lr.ph.i
  %20 = getelementptr inbounds nuw i8, ptr %16, i64 8
  %21 = load ptr, ptr %20, align 8, !tbaa !96
  %.not22.i = icmp eq ptr %21, null
  br i1 %.not22.i, label %24, label %22

22:                                               ; preds = %.critedge.i
  %23 = tail call ptr @exeval(ptr noundef %1, ptr noundef nonnull %21, ptr noundef nonnull %0) #24
  br label %27

24:                                               ; preds = %.critedge.i
  %25 = load ptr, ptr %9, align 8, !tbaa !86
  %26 = tail call ptr @agsubedge(ptr noundef %25, ptr noundef nonnull %.01619, i32 noundef 1) #24
  br label %27

27:                                               ; preds = %24, %22, %18
  %28 = add nuw i64 %.01924.i, 1
  %29 = load i64, ptr %7, align 8, !tbaa !98
  %30 = icmp ult i64 %28, %29
  br i1 %30, label %.lr.ph.i, label %evalEdge.exit, !llvm.loop !100

evalEdge.exit:                                    ; preds = %27, %.lr.ph
  %.not17 = icmp eq ptr %13, null
  br i1 %.not17, label %.loopexit, label %.lr.ph, !llvm.loop !143

._crit_edge:                                      ; preds = %.loopexit, %3
  ret void
}